target datalayout = "e-m:e-p270:32:32-p271:32:32-p272:64:64-i64:64-i128:128-f80:128-n8:16:32:64-S128"
target triple = "x86_64-pc-linux-gnu"

%"class.std::__cxx11::basic_string" = type { %"struct.std::__cxx11::basic_string<char>::_Alloc_hider", i64, %union.anon }
%"struct.std::__cxx11::basic_string<char>::_Alloc_hider" = type { ptr }
%union.anon = type { i64, [8 x i8] }
%"class.std::allocator" = type { i8 }

@.str.9 = private unnamed_addr constant [131 x i8] c"generated/home/dtcxzyw/WorkSpace/Projects/compilers/llvm-opt-benchmark/bench/opencv/opencv/modules/core/src/matrix_expressions.cpp\00", align 1
@.str.60 = private unnamed_addr constant [39 x i8] c"One or more matrix operands are empty.\00", align 1
@__func__._ZN2cvL18checkOperandsExistERKNS_3MatES2_ = private unnamed_addr constant [19 x i8] c"checkOperandsExist\00", align 1

; Function Attrs: mustprogress uwtable
define internal void @_ZN2cvL18checkOperandsExistERKNS_3MatES2_(ptr noundef nonnull align 8 dereferenceable(96) %0, ptr noundef nonnull align 8 dereferenceable(96) %1) #6 personality ptr @__gxx_personality_v0 {
  %3 = alloca ptr, align 8
  %4 = alloca ptr, align 8
  %5 = alloca %"class.std::__cxx11::basic_string", align 8
  %6 = alloca %"class.std::allocator", align 1
  %7 = alloca ptr, align 8
  %8 = alloca i32, align 4
  store ptr %0, ptr %3, align 8
  store ptr %1, ptr %4, align 8
  %9 = load ptr, ptr %3, align 8
  %10 = call noundef zeroext i1 @_ZNK2cv3Mat5emptyEv(ptr noundef nonnull align 8 dereferenceable(96) %9)
  br i1 %10, label %14, label %11

11:                                               ; preds = %2
  %12 = load ptr, ptr %4, align 8
  %13 = call noundef zeroext i1 @_ZNK2cv3Mat5emptyEv(ptr noundef nonnull align 8 dereferenceable(96) %12)
  br i1 %13, label %14, label %26

14:                                               ; preds = %11, %2
  call void @_ZNSaIcEC1Ev(ptr noundef nonnull align 1 dereferenceable(1) %6) #3
  invoke void @_ZNSt7__cxx1112basic_stringIcSt11char_traitsIcESaIcEEC1EPKcRKS3_(ptr noundef nonnull align 8 dereferenceable(32) %5, ptr noundef @.str.60, ptr noundef nonnull align 1 dereferenceable(1) %6)
          to label %15 unwind label %17

15:                                               ; preds = %14
  invoke void @_ZN2cv5errorEiRKNSt7__cxx1112basic_stringIcSt11char_traitsIcESaIcEEEPKcS9_i(i32 noundef -5, ptr noundef nonnull align 8 dereferenceable(32) %5, ptr noundef @__func__._ZN2cvL18checkOperandsExistERKNS_3MatES2_, ptr noundef @.str.9, i32 noundef 32) #14
          to label %16 unwind label %21

16:                                               ; preds = %15
  unreachable

17:                                               ; preds = %14
  %18 = landingpad { ptr, i32 }
          cleanup
  %19 = extractvalue { ptr, i32 } %18, 0
  store ptr %19, ptr %7, align 8
  %20 = extractvalue { ptr, i32 } %18, 1
  store i32 %20, ptr %8, align 4
  br label %25

21:                                               ; preds = %15
  %22 = landingpad { ptr, i32 }
          cleanup
  %23 = extractvalue { ptr, i32 } %22, 0
  store ptr %23, ptr %7, align 8
  %24 = extractvalue { ptr, i32 } %22, 1
  store i32 %24, ptr %8, align 4
  call void @_ZNSt7__cxx1112basic_stringIcSt11char_traitsIcESaIcEED1Ev(ptr noundef nonnull align 8 dereferenceable(32) %5) #3
  br label %25

25:                                               ; preds = %21, %17
  call void @_ZNSaIcED1Ev(ptr noundef nonnull align 1 dereferenceable(1) %6) #3
  br label %27

26:                                               ; preds = %11
  ret void

27:                                               ; preds = %25
  %28 = load ptr, ptr %7, align 8
  %29 = load i32, ptr %8, align 4
  %30 = insertvalue { ptr, i32 } poison, ptr %28, 0
  %31 = insertvalue { ptr, i32 } %30, i32 %29, 1
  resume { ptr, i32 } %31
}